target datalayout = "e-m:e-p270:32:32-p271:32:32-p272:64:64-i64:64-i128:128-f80:128-n8:16:32:64-S128"
target triple = "x86_64-pc-linux-gnu"

%"class.llvm::SmallVectorBase" = type { ptr, i32, i32 }
%"class.llvm::SmallPtrSetImplBase.base" = type <{ ptr, ptr, i32, i32, i32 }>
%"class.std::_Function_base" = type { %"union.std::_Any_data", ptr }
%"union.std::_Any_data" = type { %"union.std::_Nocopy_types" }
%"union.std::_Nocopy_types" = type { { i64, i64 } }
%"class.llvm::GlobalsAAResult" = type { ptr, %"class.std::function.0", %"class.llvm::SmallPtrSet.3", i8, %"class.llvm::SmallPtrSet.3", %"class.llvm::DenseMap", %"class.llvm::DenseMap.6", %"class.llvm::DenseMap.9", %"class.std::__cxx11::list" }
%"class.std::function.0" = type { %"class.std::_Function_base", ptr }
%"class.llvm::SmallPtrSet.3" = type { %"class.llvm::SmallPtrSetImpl.base.5", [8 x ptr] }
%"class.llvm::SmallPtrSetImpl.base.5" = type { %"class.llvm::SmallPtrSetImplBase.base" }
%"class.llvm::DenseMap" = type <{ ptr, i32, i32, i32, [4 x i8] }>
%"class.llvm::DenseMap.6" = type <{ ptr, i32, i32, i32, [4 x i8] }>
%"class.llvm::DenseMap.9" = type <{ ptr, i32, i32, i32, [4 x i8] }>
%"class.std::__cxx11::list" = type { %"class.std::__cxx11::_List_base" }
%"class.std::__cxx11::_List_base" = type { %"struct.std::__cxx11::_List_base<llvm::GlobalsAAResult::DeletionCallbackHandle, std::allocator<llvm::GlobalsAAResult::DeletionCallbackHandle>>::_List_impl" }
%"struct.std::__cxx11::_List_base<llvm::GlobalsAAResult::DeletionCallbackHandle, std::allocator<llvm::GlobalsAAResult::DeletionCallbackHandle>>::_List_impl" = type { %"struct.std::__detail::_List_node_header" }
%"struct.std::__detail::_List_node_header" = type { %"struct.std::__detail::_List_node_base", i64 }
%"struct.std::__detail::_List_node_base" = type { ptr, ptr }
%"class.llvm::Module" = type <{ ptr, %"class.llvm::SymbolTableList", %"class.llvm::SymbolTableList.21", %"class.llvm::SymbolTableList.30", %"class.llvm::SymbolTableList.39", %"class.llvm::iplist", %"class.std::__cxx11::basic_string", %"class.std::unique_ptr", %"class.llvm::StringMap", %"class.std::unique_ptr.60", %"class.std::unique_ptr.68", %"class.std::__cxx11::basic_string", %"class.std::__cxx11::basic_string", %"class.std::__cxx11::basic_string", %"class.llvm::StringMap.76", %"class.llvm::DataLayout", %"class.llvm::StringMap.102", %"class.llvm::DenseMap.103", ptr, i8, [7 x i8] }>
%"class.llvm::SymbolTableList" = type { %"class.llvm::iplist_impl" }
%"class.llvm::iplist_impl" = type { %"class.llvm::simple_ilist" }
%"class.llvm::simple_ilist" = type { %"class.llvm::ilist_sentinel" }
%"class.llvm::ilist_sentinel" = type { %"class.llvm::ilist_node_impl" }
%"class.llvm::ilist_node_impl" = type { %"class.llvm::ilist_node_base" }
%"class.llvm::ilist_node_base" = type { %"class.llvm::ilist_detail::node_base_prevnext" }
%"class.llvm::ilist_detail::node_base_prevnext" = type { ptr, ptr }
%"class.llvm::SymbolTableList.21" = type { %"class.llvm::iplist_impl.22" }
%"class.llvm::iplist_impl.22" = type { %"class.llvm::simple_ilist.25" }
%"class.llvm::simple_ilist.25" = type { %"class.llvm::ilist_sentinel.27" }
%"class.llvm::ilist_sentinel.27" = type { %"class.llvm::ilist_node_impl.28" }
%"class.llvm::ilist_node_impl.28" = type { %"class.llvm::ilist_node_base" }
%"class.llvm::SymbolTableList.30" = type { %"class.llvm::iplist_impl.31" }
%"class.llvm::iplist_impl.31" = type { %"class.llvm::simple_ilist.34" }
%"class.llvm::simple_ilist.34" = type { %"class.llvm::ilist_sentinel.36" }
%"class.llvm::ilist_sentinel.36" = type { %"class.llvm::ilist_node_impl.37" }
%"class.llvm::ilist_node_impl.37" = type { %"class.llvm::ilist_node_base" }
%"class.llvm::SymbolTableList.39" = type { %"class.llvm::iplist_impl.40" }
%"class.llvm::iplist_impl.40" = type { %"class.llvm::simple_ilist.43" }
%"class.llvm::simple_ilist.43" = type { %"class.llvm::ilist_sentinel.45" }
%"class.llvm::ilist_sentinel.45" = type { %"class.llvm::ilist_node_impl.46" }
%"class.llvm::ilist_node_impl.46" = type { %"class.llvm::ilist_node_base" }
%"class.llvm::iplist" = type { %"class.llvm::iplist_impl.48" }
%"class.llvm::iplist_impl.48" = type { %"class.llvm::simple_ilist.50" }
%"class.llvm::simple_ilist.50" = type { %"class.llvm::ilist_sentinel.52" }
%"class.llvm::ilist_sentinel.52" = type { %"class.llvm::ilist_node_impl.53" }
%"class.llvm::ilist_node_impl.53" = type { %"class.llvm::ilist_node_base" }
%"class.std::unique_ptr" = type { %"struct.std::__uniq_ptr_data" }
%"struct.std::__uniq_ptr_data" = type { %"class.std::__uniq_ptr_impl" }
%"class.std::__uniq_ptr_impl" = type { %"class.std::tuple" }
%"class.std::tuple" = type { %"struct.std::_Tuple_impl" }
%"struct.std::_Tuple_impl" = type { %"struct.std::_Head_base.59" }
%"struct.std::_Head_base.59" = type { ptr }
%"class.llvm::StringMap" = type { %"class.llvm::StringMapImpl" }
%"class.llvm::StringMapImpl" = type { ptr, i32, i32, i32, i32 }
%"class.std::unique_ptr.60" = type { %"struct.std::__uniq_ptr_data.61" }
%"struct.std::__uniq_ptr_data.61" = type { %"class.std::__uniq_ptr_impl.62" }
%"class.std::__uniq_ptr_impl.62" = type { %"class.std::tuple.63" }
%"class.std::tuple.63" = type { %"struct.std::_Tuple_impl.64" }
%"struct.std::_Tuple_impl.64" = type { %"struct.std::_Head_base.67" }
%"struct.std::_Head_base.67" = type { ptr }
%"class.std::unique_ptr.68" = type { %"struct.std::__uniq_ptr_data.69" }
%"struct.std::__uniq_ptr_data.69" = type { %"class.std::__uniq_ptr_impl.70" }
%"class.std::__uniq_ptr_impl.70" = type { %"class.std::tuple.71" }
%"class.std::tuple.71" = type { %"struct.std::_Tuple_impl.72" }
%"struct.std::_Tuple_impl.72" = type { %"struct.std::_Head_base.75" }
%"struct.std::_Head_base.75" = type { ptr }
%"class.std::__cxx11::basic_string" = type { %"struct.std::__cxx11::basic_string<char>::_Alloc_hider", i64, %union.anon }
%"struct.std::__cxx11::basic_string<char>::_Alloc_hider" = type { ptr }
%union.anon = type { i64, [8 x i8] }
%"class.llvm::StringMap.76" = type { %"class.llvm::StringMapImpl" }
%"class.llvm::DataLayout" = type { i8, i32, i32, i32, %"struct.llvm::MaybeAlign", %"struct.llvm::MaybeAlign", i32, i32, %"class.llvm::SmallVector.77", %"class.llvm::SmallVector.83", %"class.llvm::SmallVector.88", %"class.llvm::SmallVector.90", %"class.llvm::SmallVector.92", %"class.std::__cxx11::basic_string", %"struct.llvm::Align", %"struct.llvm::Align", ptr, %"class.llvm::SmallVector.97" }
%"struct.llvm::MaybeAlign" = type { %"class.std::optional" }
%"class.std::optional" = type { %"struct.std::_Optional_base" }
%"struct.std::_Optional_base" = type { %"struct.std::_Optional_payload" }
%"struct.std::_Optional_payload" = type { %"struct.std::_Optional_payload_base" }
%"struct.std::_Optional_payload_base" = type { %"union.std::_Optional_payload_base<llvm::Align>::_Storage", i8 }
%"union.std::_Optional_payload_base<llvm::Align>::_Storage" = type { %"struct.std::_Optional_payload_base<llvm::Align>::_Empty_byte" }
%"struct.std::_Optional_payload_base<llvm::Align>::_Empty_byte" = type { i8 }
%"class.llvm::SmallVector.77" = type { %"class.llvm::SmallVectorImpl.78", %"struct.llvm::SmallVectorStorage.82" }
%"class.llvm::SmallVectorImpl.78" = type { %"class.llvm::SmallVectorTemplateBase.79" }
%"class.llvm::SmallVectorTemplateBase.79" = type { %"class.llvm::SmallVectorTemplateCommon.80" }
%"class.llvm::SmallVectorTemplateCommon.80" = type { %"class.llvm::SmallVectorBase.81" }
%"class.llvm::SmallVectorBase.81" = type { ptr, i64, i64 }
%"struct.llvm::SmallVectorStorage.82" = type { [8 x i8] }
%"class.llvm::SmallVector.83" = type { %"class.llvm::SmallVectorImpl.84", %"struct.llvm::SmallVectorStorage.87" }
%"class.llvm::SmallVectorImpl.84" = type { %"class.llvm::SmallVectorTemplateBase.85" }
%"class.llvm::SmallVectorTemplateBase.85" = type { %"class.llvm::SmallVectorTemplateCommon.86" }
%"class.llvm::SmallVectorTemplateCommon.86" = type { %"class.llvm::SmallVectorBase" }
%"struct.llvm::SmallVectorStorage.87" = type { [48 x i8] }
%"class.llvm::SmallVector.88" = type { %"class.llvm::SmallVectorImpl.84", %"struct.llvm::SmallVectorStorage.89" }
%"struct.llvm::SmallVectorStorage.89" = type { [32 x i8] }
%"class.llvm::SmallVector.90" = type { %"class.llvm::SmallVectorImpl.84", %"struct.llvm::SmallVectorStorage.91" }
%"struct.llvm::SmallVectorStorage.91" = type { [80 x i8] }
%"class.llvm::SmallVector.92" = type { %"class.llvm::SmallVectorImpl.93", %"struct.llvm::SmallVectorStorage.96" }
%"class.llvm::SmallVectorImpl.93" = type { %"class.llvm::SmallVectorTemplateBase.94" }
%"class.llvm::SmallVectorTemplateBase.94" = type { %"class.llvm::SmallVectorTemplateCommon.95" }
%"class.llvm::SmallVectorTemplateCommon.95" = type { %"class.llvm::SmallVectorBase" }
%"struct.llvm::SmallVectorStorage.96" = type { [128 x i8] }
%"struct.llvm::Align" = type { i8 }
%"class.llvm::SmallVector.97" = type { %"class.llvm::SmallVectorImpl.98", %"struct.llvm::SmallVectorStorage.101" }
%"class.llvm::SmallVectorImpl.98" = type { %"class.llvm::SmallVectorTemplateBase.99" }
%"class.llvm::SmallVectorTemplateBase.99" = type { %"class.llvm::SmallVectorTemplateCommon.100" }
%"class.llvm::SmallVectorTemplateCommon.100" = type { %"class.llvm::SmallVectorBase" }
%"struct.llvm::SmallVectorStorage.101" = type { [32 x i8] }
%"class.llvm::StringMap.102" = type { %"class.llvm::StringMapImpl" }
%"class.llvm::DenseMap.103" = type <{ ptr, i32, i32, i32, [4 x i8] }>

@_ZN4llvm15GlobalsAAResultC1ERKNS_10DataLayoutESt8functionIFRKNS_17TargetLibraryInfoERNS_8FunctionEEE = unnamed_addr alias void (ptr, ptr, ptr), ptr @_ZN4llvm15GlobalsAAResultC2ERKNS_10DataLayoutESt8functionIFRKNS_17TargetLibraryInfoERNS_8FunctionEEE
@_ZN4llvm15GlobalsAAResultD1Ev = unnamed_addr alias void (ptr), ptr @_ZN4llvm15GlobalsAAResultD2Ev

; Function Attrs: mustprogress nounwind uwtable
define linkonce_odr hidden noundef zeroext i1 @_ZNKSt14_Function_base8_M_emptyEv(ptr noundef nonnull align 8 dereferenceable(24) %0) #1 comdat align 2 {
  %2 = alloca ptr, align 8
  store ptr %0, ptr %2, align 8
  %3 = load ptr, ptr %2, align 8
  %4 = getelementptr inbounds nuw %"class.std::_Function_base", ptr %3, i32 0, i32 1
  %5 = load ptr, ptr %4, align 8
  %6 = icmp ne ptr %5, null
  %7 = xor i1 %6, true
  ret i1 %7
}

; Function Attrs: mustprogress nounwind uwtable
define linkonce_odr hidden void @_ZNSt14_Function_baseD2Ev(ptr noundef nonnull align 8 dereferenceable(24) %0) unnamed_addr #1 comdat align 2 {
  %2 = alloca ptr, align 8
  store ptr %0, ptr %2, align 8
  %3 = load ptr, ptr %2, align 8
  %4 = getelementptr inbounds nuw %"class.std::_Function_base", ptr %3, i32 0, i32 1
  %5 = load ptr, ptr %4, align 8
  %6 = icmp ne ptr %5, null
  br i1 %6, label %7, label %13

7:                                                ; preds = %1
  %8 = getelementptr inbounds nuw %"class.std::_Function_base", ptr %3, i32 0, i32 1
  %9 = load ptr, ptr %8, align 8
  %10 = getelementptr inbounds nuw %"class.std::_Function_base", ptr %3, i32 0, i32 0
  %11 = getelementptr inbounds nuw %"class.std::_Function_base", ptr %3, i32 0, i32 0
  %12 = call noundef zeroext i1 %9(ptr noundef nonnull align 8 dereferenceable(16) %10, ptr noundef nonnull align 8 dereferenceable(16) %11, i32 noundef 3)
  br label %13

13:                                               ; preds = %7, %1
  ret void
}

; Function Attrs: mustprogress nounwind uwtable
define linkonce_odr hidden noundef zeroext i1 @_ZNKSt8functionIFRKN4llvm17TargetLibraryInfoERNS0_8FunctionEEEcvbEv(ptr noundef nonnull align 8 dereferenceable(32) %0) #1 comdat align 2 {
  %2 = alloca ptr, align 8
  store ptr %0, ptr %2, align 8
  %3 = load ptr, ptr %2, align 8
  %4 = call noundef zeroext i1 @_ZNKSt14_Function_base8_M_emptyEv(ptr noundef nonnull align 8 dereferenceable(24) %3)
  %5 = xor i1 %4, true
  ret i1 %5
}

; Function Attrs: mustprogress nounwind uwtable
define linkonce_odr hidden void @_ZNSt14_Function_baseC2Ev(ptr noundef nonnull align 8 dereferenceable(24) %0) unnamed_addr #1 comdat align 2 {
  %2 = alloca ptr, align 8
  store ptr %0, ptr %2, align 8
  %3 = load ptr, ptr %2, align 8
  %4 = getelementptr inbounds nuw %"class.std::_Function_base", ptr %3, i32 0, i32 0
  store ptr null, ptr %4, align 8
  %5 = getelementptr inbounds nuw %"class.std::_Function_base", ptr %3, i32 0, i32 1
  store ptr null, ptr %5, align 8
  ret void
}

; Function Attrs: mustprogress nounwind uwtable
define linkonce_odr hidden void @_ZNSt8functionIFRKN4llvm17TargetLibraryInfoERNS0_8FunctionEEED2Ev(ptr noundef nonnull align 8 dereferenceable(32) %0) unnamed_addr #1 comdat align 2 {
  %2 = alloca ptr, align 8
  store ptr %0, ptr %2, align 8
  %3 = load ptr, ptr %2, align 8
  call void @_ZNSt14_Function_baseD2Ev(ptr noundef nonnull align 8 dereferenceable(24) %3) #2
  ret void
}

; Function Attrs: mustprogress nounwind uwtable
define linkonce_odr hidden void @_ZNSt8functionIFRKN4llvm17TargetLibraryInfoERNS0_8FunctionEEEC2ERKS7_(ptr noundef nonnull align 8 dereferenceable(32) %0, ptr noundef nonnull align 8 dereferenceable(32) %1) unnamed_addr #1 comdat align 2 {
  %3 = alloca ptr, align 8
  %4 = alloca ptr, align 8
  store ptr %0, ptr %3, align 8
  store ptr %1, ptr %4, align 8
  %5 = load ptr, ptr %3, align 8
  %6 = getelementptr inbounds i8, ptr %5, i64 0
  call void @llvm.memset.p0.i64(ptr align 8 %6, i8 0, i64 24, i1 false)
  call void @_ZNSt14_Function_baseC2Ev(ptr noundef nonnull align 8 dereferenceable(24) %5) #2
  %7 = getelementptr inbounds nuw %"class.std::function.0", ptr %5, i32 0, i32 1
  store ptr null, ptr %7, align 8
  %8 = load ptr, ptr %4, align 8
  %9 = call noundef zeroext i1 @_ZNKSt8functionIFRKN4llvm17TargetLibraryInfoERNS0_8FunctionEEEcvbEv(ptr noundef nonnull align 8 dereferenceable(32) %8) #2
  br i1 %9, label %10, label %26

10:                                               ; preds = %2
  %11 = load ptr, ptr %4, align 8
  %12 = getelementptr inbounds nuw %"class.std::_Function_base", ptr %11, i32 0, i32 1
  %13 = load ptr, ptr %12, align 8
  %14 = getelementptr inbounds nuw %"class.std::_Function_base", ptr %5, i32 0, i32 0
  %15 = load ptr, ptr %4, align 8
  %16 = getelementptr inbounds nuw %"class.std::_Function_base", ptr %15, i32 0, i32 0
  %17 = call noundef zeroext i1 %13(ptr noundef nonnull align 8 dereferenceable(16) %14, ptr noundef nonnull align 8 dereferenceable(16) %16, i32 noundef 2)
  %18 = load ptr, ptr %4, align 8
  %19 = getelementptr inbounds nuw %"class.std::function.0", ptr %18, i32 0, i32 1
  %20 = load ptr, ptr %19, align 8
  %21 = getelementptr inbounds nuw %"class.std::function.0", ptr %5, i32 0, i32 1
  store ptr %20, ptr %21, align 8
  %22 = load ptr, ptr %4, align 8
  %23 = getelementptr inbounds nuw %"class.std::_Function_base", ptr %22, i32 0, i32 1
  %24 = load ptr, ptr %23, align 8
  %25 = getelementptr inbounds nuw %"class.std::_Function_base", ptr %5, i32 0, i32 1
  store ptr %24, ptr %25, align 8
  br label %26

26:                                               ; preds = %10, %2
  ret void
}

; Function Attrs: mustprogress nounwind uwtable
define linkonce_odr hidden noundef nonnull align 8 dereferenceable(512) ptr @_ZNK4llvm6Module13getDataLayoutEv(ptr noundef nonnull align 8 dereferenceable(857) %0) #1 comdat align 2 {
  %2 = alloca ptr, align 8
  store ptr %0, ptr %2, align 8
  %3 = load ptr, ptr %2, align 8
  %4 = getelementptr inbounds nuw %"class.llvm::Module", ptr %3, i32 0, i32 15
  ret ptr %4
}

; Function Attrs: mustprogress nounwind uwtable
define dso_local void @_ZN4llvm15GlobalsAAResult13analyzeModuleERNS_6ModuleESt8functionIFRKNS_17TargetLibraryInfoERNS_8FunctionEEERNS_9CallGraphE(ptr dead_on_unwind noalias writable sret(%"class.llvm::GlobalsAAResult") align 8 %0, ptr noundef nonnull align 8 dereferenceable(857) %1, ptr noundef %2, ptr noundef nonnull align 8 dereferenceable(72) %3) #1 align 2 {
  %5 = alloca ptr, align 8
  %6 = alloca ptr, align 8
  %7 = alloca ptr, align 8
  %8 = alloca ptr, align 8
  %9 = alloca i1, align 1
  %10 = alloca %"class.std::function.0", align 8
  store ptr %0, ptr %5, align 8
  store ptr %1, ptr %6, align 8
  store ptr %2, ptr %7, align 8
  store ptr %3, ptr %8, align 8
  store i1 false, ptr %9, align 1
  %11 = load ptr, ptr %6, align 8
  %12 = call noundef nonnull align 8 dereferenceable(512) ptr @_ZNK4llvm6Module13getDataLayoutEv(ptr noundef nonnull align 8 dereferenceable(857) %11)
  call void @_ZNSt8functionIFRKN4llvm17TargetLibraryInfoERNS0_8FunctionEEEC2ERKS7_(ptr noundef nonnull align 8 dereferenceable(32) %10, ptr noundef nonnull align 8 dereferenceable(32) %2)
  call void @_ZN4llvm15GlobalsAAResultC1ERKNS_10DataLayoutESt8functionIFRKNS_17TargetLibraryInfoERNS_8FunctionEEE(ptr noundef nonnull align 8 dereferenceable(336) %0, ptr noundef nonnull align 8 dereferenceable(512) %12, ptr noundef %10)
  call void @_ZNSt8functionIFRKN4llvm17TargetLibraryInfoERNS0_8FunctionEEED2Ev(ptr noundef nonnull align 8 dereferenceable(32) %10) #2
  %13 = load ptr, ptr %8, align 8
  call void @_ZN4llvm15GlobalsAAResult20CollectSCCMembershipERNS_9CallGraphE(ptr noundef nonnull align 8 dereferenceable(336) %0, ptr noundef nonnull align 8 dereferenceable(72) %13)
  %14 = load ptr, ptr %6, align 8
  call void @_ZN4llvm15GlobalsAAResult14AnalyzeGlobalsERNS_6ModuleE(ptr noundef nonnull align 8 dereferenceable(336) %0, ptr noundef nonnull align 8 dereferenceable(857) %14)
  %15 = load ptr, ptr %8, align 8
  %16 = load ptr, ptr %6, align 8
  call void @_ZN4llvm15GlobalsAAResult16AnalyzeCallGraphERNS_9CallGraphERNS_6ModuleE(ptr noundef nonnull align 8 dereferenceable(336) %0, ptr noundef nonnull align 8 dereferenceable(72) %15, ptr noundef nonnull align 8 dereferenceable(857) %16)
  store i1 true, ptr %9, align 1
  %17 = load i1, ptr %9, align 1
  br i1 %17, label %19, label %18

18:                                               ; preds = %4
  call void @_ZN4llvm15GlobalsAAResultD1Ev(ptr noundef nonnull align 8 dereferenceable(336) %0) #2
  br label %19

19:                                               ; preds = %18, %4
  ret void
}