; Function Attrs: mustprogress nounwind uwtable
define dso_local void @_ZN4llvm15GlobalsAAResult13analyzeModuleERNS_6ModuleESt8functionIFRKNS_17TargetLibraryInfoERNS_8FunctionEEERNS_9CallGraphE(ptr dead_on_unwind noalias writable sret(%"class.llvm::GlobalsAAResult") align 8 %0, ptr noundef nonnull align 8 dereferenceable(857) %1, ptr noundef %2, ptr noundef nonnull align 8 dereferenceable(72) %3) local_unnamed_addr #0 align 2 {
  %5 = alloca %"class.std::function.0", align 8
  %6 = getelementptr inbounds nuw i8, ptr %1, i64 288
  %7 = getelementptr inbounds nuw i8, ptr %2, i64 16
  call void @llvm.memset.p0.i64(ptr noundef nonnull align 8 dereferenceable(32) %5, i8 0, i64 32, i1 false)
  %8 = load ptr, ptr %7, align 8
  %.not.i.i.not.i = icmp eq ptr %8, null
  br i1 %.not.i.i.not.i, label %_ZNSt8functionIFRKN4llvm17TargetLibraryInfoERNS0_8FunctionEEEC2ERKS7_.exit, label %9

9:                                                ; preds = %4
  %10 = getelementptr inbounds nuw i8, ptr %5, i64 24
  %11 = getelementptr inbounds nuw i8, ptr %5, i64 16
  %12 = call noundef zeroext i1 %8(ptr noundef nonnull align 8 dereferenceable(16) %5, ptr noundef nonnull align 8 dereferenceable(16) %2, i32 noundef 2) #19
  %13 = getelementptr inbounds nuw i8, ptr %2, i64 24
  %14 = load ptr, ptr %13, align 8
  store ptr %14, ptr %10, align 8
  %15 = load ptr, ptr %7, align 8
  store ptr %15, ptr %11, align 8
  br label %_ZNSt8functionIFRKN4llvm17TargetLibraryInfoERNS0_8FunctionEEEC2ERKS7_.exit

_ZNSt8functionIFRKN4llvm17TargetLibraryInfoERNS0_8FunctionEEEC2ERKS7_.exit: ; preds = %4, %9
  call void @_ZN4llvm15GlobalsAAResultC1ERKNS_10DataLayoutESt8functionIFRKNS_17TargetLibraryInfoERNS_8FunctionEEE(ptr noundef nonnull align 8 dereferenceable(336) %0, ptr noundef nonnull align 8 dereferenceable(512) %6, ptr noundef nonnull %5) #19
  %16 = getelementptr inbounds nuw i8, ptr %5, i64 16
  %17 = load ptr, ptr %16, align 8
  %.not.i.i = icmp eq ptr %17, null
  br i1 %.not.i.i, label %_ZNSt8functionIFRKN4llvm17TargetLibraryInfoERNS0_8FunctionEEED2Ev.exit, label %18

18:                                               ; preds = %_ZNSt8functionIFRKN4llvm17TargetLibraryInfoERNS0_8FunctionEEEC2ERKS7_.exit
  %19 = call noundef zeroext i1 %17(ptr noundef nonnull align 8 dereferenceable(16) %5, ptr noundef nonnull align 8 dereferenceable(16) %5, i32 noundef 3) #19
  br label %_ZNSt8functionIFRKN4llvm17TargetLibraryInfoERNS0_8FunctionEEED2Ev.exit

_ZNSt8functionIFRKN4llvm17TargetLibraryInfoERNS0_8FunctionEEED2Ev.exit: ; preds = %_ZNSt8functionIFRKN4llvm17TargetLibraryInfoERNS0_8FunctionEEEC2ERKS7_.exit, %18
  call void @_ZN4llvm15GlobalsAAResult20CollectSCCMembershipERNS_9CallGraphE(ptr noundef nonnull align 8 dereferenceable(336) %0, ptr noundef nonnull align 8 dereferenceable(72) %3)
  call void @_ZN4llvm15GlobalsAAResult14AnalyzeGlobalsERNS_6ModuleE(ptr noundef nonnull align 8 dereferenceable(336) %0, ptr noundef nonnull align 8 dereferenceable(857) %1)
  call void @_ZN4llvm15GlobalsAAResult16AnalyzeCallGraphERNS_9CallGraphERNS_6ModuleE(ptr noundef nonnull align 8 dereferenceable(336) %0, ptr noundef nonnull align 8 dereferenceable(72) %3, ptr nonnull align 8 poison)
  ret void
}